#include <math.h>
#include <stdio.h>
#include <stdlib.h>
#include <string.h>


int main()
{
    int n,a,b,c,d,e;
	scanf("%d",&n);
	a=n/10000;
	b=(n%10000)/1000;
	c=(n%1000)/100;
	d=(n%100)/10;
	e=n%10;
    if (a==0)
	{
	    if(b==0)
		{
			if(c==0)
			{
			    if(d==0)
                    printf("%d",e);
				else
					printf("%d",e*10+d);
			}
			else
				printf("%d",e*100+d*10+c);
		}
		else
			printf("%d",e*1000+d*100+c*10+b);
	}
	else
        printf("%d",e*10000+d*1000+c*100+b*10+a);

	return 0;
}