; ModuleID = '56/2270.c'
source_filename = "56/2270.c"
target datalayout = "e-m:e-p270:32:32-p271:32:32-p272:64:64-i64:64-f80:128-n8:16:32:64-S128"
target triple = "x86_64-pc-linux-gnu"

@.str = private unnamed_addr constant [3 x i8] c"%d\00", align 1

; Function Attrs: noinline nounwind uwtable
define dso_local i32 @main() #0 {
  %1 = alloca i32, align 4
  %2 = alloca i32, align 4
  %3 = alloca i32, align 4
  %4 = alloca i32, align 4
  %5 = alloca i32, align 4
  %6 = alloca i32, align 4
  %7 = alloca i32, align 4
  store i32 0, i32* %1, align 4
  %8 = call i32 (i8*, ...) @__isoc99_scanf(i8* getelementptr inbounds ([3 x i8], [3 x i8]* @.str, i64 0, i64 0), i32* %2)
  %9 = load i32, i32* %2, align 4
  %10 = sdiv i32 %9, 10000
  store i32 %10, i32* %3, align 4
  %11 = load i32, i32* %2, align 4
  %12 = srem i32 %11, 10000
  %13 = sdiv i32 %12, 1000
  store i32 %13, i32* %4, align 4
  %14 = load i32, i32* %2, align 4
  %15 = srem i32 %14, 1000
  %16 = sdiv i32 %15, 100
  store i32 %16, i32* %5, align 4
  %17 = load i32, i32* %2, align 4
  %18 = srem i32 %17, 100
  %19 = sdiv i32 %18, 10
  store i32 %19, i32* %6, align 4
  %20 = load i32, i32* %2, align 4
  %21 = srem i32 %20, 10
  store i32 %21, i32* %7, align 4
  %22 = load i32, i32* %3, align 4
  %23 = icmp eq i32 %22, 0
  br i1 %23, label %24, label %66

24:                                               ; preds = %0
  %25 = load i32, i32* %4, align 4
  %26 = icmp eq i32 %25, 0
  br i1 %26, label %27, label %53

27:                                               ; preds = %24
  %28 = load i32, i32* %5, align 4
  %29 = icmp eq i32 %28, 0
  br i1 %29, label %30, label %43

30:                                               ; preds = %27
  %31 = load i32, i32* %6, align 4
  %32 = icmp eq i32 %31, 0
  br i1 %32, label %33, label %36

33:                                               ; preds = %30
  %34 = load i32, i32* %7, align 4
  %35 = call i32 (i8*, ...) @printf(i8* getelementptr inbounds ([3 x i8], [3 x i8]* @.str, i64 0, i64 0), i32 %34)
  br label %42

36:                                               ; preds = %30
  %37 = load i32, i32* %7, align 4
  %38 = mul nsw i32 %37, 10
  %39 = load i32, i32* %6, align 4
  %40 = add nsw i32 %38, %39
  %41 = call i32 (i8*, ...) @printf(i8* getelementptr inbounds ([3 x i8], [3 x i8]* @.str, i64 0, i64 0), i32 %40)
  br label %42

42:                                               ; preds = %36, %33
  br label %52

43:                                               ; preds = %27
  %44 = load i32, i32* %7, align 4
  %45 = mul nsw i32 %44, 100
  %46 = load i32, i32* %6, align 4
  %47 = mul nsw i32 %46, 10
  %48 = add nsw i32 %45, %47
  %49 = load i32, i32* %5, align 4
  %50 = add nsw i32 %48, %49
  %51 = call i32 (i8*, ...) @printf(i8* getelementptr inbounds ([3 x i8], [3 x i8]* @.str, i64 0, i64 0), i32 %50)
  br label %52

52:                                               ; preds = %43, %42
  br label %65

53:                                               ; preds = %24
  %54 = load i32, i32* %7, align 4
  %55 = mul nsw i32 %54, 1000
  %56 = load i32, i32* %6, align 4
  %57 = mul nsw i32 %56, 100
  %58 = add nsw i32 %55, %57
  %59 = load i32, i32* %5, align 4
  %60 = mul nsw i32 %59, 10
  %61 = add nsw i32 %58, %60
  %62 = load i32, i32* %4, align 4
  %63 = add nsw i32 %61, %62
  %64 = call i32 (i8*, ...) @printf(i8* getelementptr inbounds ([3 x i8], [3 x i8]* @.str, i64 0, i64 0), i32 %63)
  br label %65

65:                                               ; preds = %53, %52
  br label %81

66:                                               ; preds = %0
  %67 = load i32, i32* %7, align 4
  %68 = mul nsw i32 %67, 10000
  %69 = load i32, i32* %6, align 4
  %70 = mul nsw i32 %69, 1000
  %71 = add nsw i32 %68, %70
  %72 = load i32, i32* %5, align 4
  %73 = mul nsw i32 %72, 100
  %74 = add nsw i32 %71, %73
  %75 = load i32, i32* %4, align 4
  %76 = mul nsw i32 %75, 10
  %77 = add nsw i32 %74, %76
  %78 = load i32, i32* %3, align 4
  %79 = add nsw i32 %77, %78
  %80 = call i32 (i8*, ...) @printf(i8* getelementptr inbounds ([3 x i8], [3 x i8]* @.str, i64 0, i64 0), i32 %79)
  br label %81

81:                                               ; preds = %66, %65
  ret i32 0
}

declare dso_local i32 @__isoc99_scanf(i8*, ...) #1

declare dso_local i32 @printf(i8*, ...) #1


!llvm.module.flags = !{!0}
!llvm.ident = !{!1}

!0 = !{i32 1, !"wchar_size", i32 4}
!1 = !{!"clang version 10.0.0-4ubuntu1 "}
